(dp0
S'both'
p1
(lp2
S'what verbs go with keyword'
p3
aS'what nouns usually go with keyword'
p4
asS'after'
p5
(lp6
S'what can be described by keyword'
p7
asS'before'
p8
(lp9
S'how to describe keyword'
p10
aS'which word can describe keyword'
p11
aS'please give me a word can describe keyword'
p12
aS'how keyword'
p13
aS'what can I do with role'
p14
as.