(dp0
S'both'
p1
(lp2
S'what nouns usually go with keywordwhat go with keyword'
p3
asS'after'
p4
(lp5
S'what can be described by keyword'
p6
aS'what goes after the word keyword'
p7
aS'what go after keyword'
p8
asS'before'
p9
(lp10
S'how to describe keyword'
p11
aS'which word can describe keyword'
p12
aS'please give me a word can describe keyword'
p13
aS'how keyword'
p14
aS'what can I do with role'
p15
aS'what go before keyword'
p16
as.