(dp0
S'zero2more'
p1
(dp2
S'adv'
p3
(dp4
sS'n'
p5
(dp6
sS'adj'
p7
(dp8
sS'others'
p9
(dp10
sS'v'
p11
c__builtin__
set
p12
((lp13
S'use'
p14
atp15
Rp16
ssS'optionally'
p17
(dp18
g3
(dp19
sg5
(dp20
sg7
(dp21
sg9
(dp22
sg11
(dp23
ssS'pos'
p24
(dp25
g3
(dp26
sg5
(dp27
sg7
(dp28
sg9
(dp29
sg11
g12
((lp30
S'depict'
p31
aS'describe'
p32
atp33
Rp34
ssS'which'
p35
(dp36
g3
(dp37
sg5
(dp38
sg7
(dp39
sg9
(dp40
sg11
(dp41
ssS'similar'
p42
(dp43
g3
(dp44
sg5
(dp45
sg7
(dp46
sg9
(dp47
sg11
(dp48
ssS'anyWord'
p49
(dp50
g3
(dp51
sg5
(dp52
sg7
(dp53
sg9
(dp54
sg11
(dp55
ss.