(dp0
S'zero2more'
p1
(dp2
S'adv'
p3
(lp4
sS'v'
p5
(lp6
sS'adj'
p7
(lp8
sS'others'
p9
(lp10
sS'n'
p11
(lp12
ssS'optionally'
p13
(dp14
g3
(lp15
sg5
(lp16
sg7
(lp17
sg9
(lp18
sg11
(lp19
ssS'pos'
p20
(dp21
g3
(lp22
sg5
(lp23
S'describe'
p24
asg7
(lp25
sg9
(lp26
sg11
(lp27
ssS'which'
p28
(dp29
g3
(lp30
sg5
(lp31
sg7
(lp32
sg9
(lp33
sg11
(lp34
ssS'similar'
p35
(dp36
g3
(lp37
sg5
(lp38
sg7
(lp39
sg9
(lp40
sg11
(lp41
ssS'anyWord'
p42
(dp43
g3
(lp44
sg5
(lp45
S'use'
p46
asg7
(lp47
sg9
(lp48
sg11
(lp49
ss.